; Function Attrs: mustprogress nounwind uwtable
define internal fastcc { i64, i32 } @_ZZL22costAndCollectOperandsIN4llvm12SCEVNAryExprEENS0_15InstructionCostERKNS0_11SCEVOperandERKNS0_19TargetTransformInfoENS6_14TargetCostKindERNS0_15SmallVectorImplIS3_EEENKUljE_clEj(ptr noundef nonnull readonly align 8 captures(none) dereferenceable(32) %0, i32 noundef range(i32 38, 48) %1) unnamed_addr #0 align 2 {
  %3 = alloca %struct.OperationIndices.462, align 8
  %4 = load ptr, ptr %0, align 8
  %5 = tail call noundef i64 @_ZNK4llvm15SmallVectorBaseIjE4sizeEv(ptr noundef nonnull align 8 dereferenceable(16) %4) #18
  %6 = tail call noundef i64 @_ZNK4llvm15SmallVectorBaseIjE8capacityEv(ptr noundef nonnull align 8 dereferenceable(16) %4) #18
  %.not.i = icmp ult i64 %5, %6
  br i1 %.not.i, label %10, label %7

7:                                                ; preds = %2
  call void @llvm.lifetime.start.p0(i64 24, ptr nonnull %3)
  store i32 %1, ptr %3, align 8
  %8 = getelementptr inbounds nuw i8, ptr %3, i64 8
  call void @llvm.memset.p0.i64(ptr noundef nonnull align 8 dereferenceable(16) %8, i8 0, i64 16, i1 false)
  call fastcc void @_ZN4llvm23SmallVectorTemplateBaseIZL22costAndCollectOperandsINS_12SCEVNAryExprEENS_15InstructionCostERKNS_11SCEVOperandERKNS_19TargetTransformInfoENS7_14TargetCostKindERNS_15SmallVectorImplIS4_EEE16OperationIndicesLb1EE9push_backERKSE_(ptr noundef nonnull align 8 dereferenceable(16) %4, ptr noundef nonnull align 8 dereferenceable(24) %3)
  %9 = call noundef i64 @_ZNK4llvm15SmallVectorBaseIjE4sizeEv(ptr noundef nonnull align 8 dereferenceable(16) %4) #18
  call void @llvm.lifetime.end.p0(i64 24, ptr nonnull %3)
  br label %_ZN4llvm15SmallVectorImplIZL22costAndCollectOperandsINS_12SCEVNAryExprEENS_15InstructionCostERKNS_11SCEVOperandERKNS_19TargetTransformInfoENS7_14TargetCostKindERNS0_IS4_EEE16OperationIndicesE12emplace_backIJRjiiEEERSD_DpOT_.exit

10:                                               ; preds = %2
  %.val.i.i = load ptr, ptr %4, align 8
  %11 = tail call noundef i64 @_ZNK4llvm15SmallVectorBaseIjE4sizeEv(ptr noundef nonnull align 8 dereferenceable(16) %4) #18
  %12 = getelementptr inbounds %struct.OperationIndices.462, ptr %.val.i.i, i64 %11
  store i32 %1, ptr %12, align 8
  %13 = getelementptr inbounds nuw i8, ptr %12, i64 8
  tail call void @llvm.memset.p0.i64(ptr noundef nonnull align 8 dereferenceable(16) %13, i8 0, i64 16, i1 false)
  %14 = tail call noundef i64 @_ZNK4llvm15SmallVectorBaseIjE4sizeEv(ptr noundef nonnull align 8 dereferenceable(16) %4) #18
  %15 = add i64 %14, 1
  tail call void @_ZN4llvm15SmallVectorBaseIjE8set_sizeEm(ptr noundef nonnull align 8 dereferenceable(16) %4, i64 noundef %15) #18
  %16 = tail call noundef i64 @_ZNK4llvm15SmallVectorBaseIjE4sizeEv(ptr noundef nonnull align 8 dereferenceable(16) %4) #18
  br label %_ZN4llvm15SmallVectorImplIZL22costAndCollectOperandsINS_12SCEVNAryExprEENS_15InstructionCostERKNS_11SCEVOperandERKNS_19TargetTransformInfoENS7_14TargetCostKindERNS0_IS4_EEE16OperationIndicesE12emplace_backIJRjiiEEERSD_DpOT_.exit

_ZN4llvm15SmallVectorImplIZL22costAndCollectOperandsINS_12SCEVNAryExprEENS_15InstructionCostERKNS_11SCEVOperandERKNS_19TargetTransformInfoENS7_14TargetCostKindERNS0_IS4_EEE16OperationIndicesE12emplace_backIJRjiiEEERSD_DpOT_.exit: ; preds = %7, %10
  %17 = getelementptr inbounds nuw i8, ptr %0, i64 8
  %18 = load ptr, ptr %17, align 8
  %19 = getelementptr inbounds nuw i8, ptr %0, i64 16
  %20 = load ptr, ptr %19, align 8
  %21 = load ptr, ptr %20, align 8
  %22 = call noundef ptr @_ZNK4llvm4SCEV7getTypeEv(ptr noundef nonnull align 8 dereferenceable(30) %21) #18
  %23 = load ptr, ptr %19, align 8
  %24 = load ptr, ptr %23, align 8
  %25 = getelementptr inbounds nuw i8, ptr %24, i64 32
  %26 = load ptr, ptr %25, align 8
  %27 = load ptr, ptr %26, align 8
  %28 = call noundef ptr @_ZNK4llvm4SCEV7getTypeEv(ptr noundef nonnull align 8 dereferenceable(30) %27) #18
  %29 = getelementptr inbounds nuw i8, ptr %0, i64 24
  %30 = load ptr, ptr %29, align 8
  %31 = load i32, ptr %30, align 4
  %32 = call { i64, i32 } @_ZNK4llvm19TargetTransformInfo16getCastInstrCostEjPNS_4TypeES2_NS0_15CastContextHintENS0_14TargetCostKindEPKNS_11InstructionE(ptr noundef nonnull align 8 dereferenceable(8) %18, i32 noundef %1, ptr noundef %22, ptr noundef %28, i8 noundef zeroext 0, i32 noundef %31, ptr noundef null) #18
  ret { i64, i32 } %32
}